; Function Attrs: uwtable
define noundef ptr @_ZThn16_N16PointEditFactory11getEditToolEPK7QAction(ptr nocapture noundef readonly %0, ptr noundef readnone %1) unnamed_addr #12 align 2 personality ptr @__gxx_personality_v0 {
  %3 = getelementptr inbounds i8, ptr %0, i64 48
  %4 = load ptr, ptr %3, align 8
  %5 = icmp eq ptr %4, %1
  br i1 %5, label %6, label %12

6:                                                ; preds = %2
  %7 = tail call noalias noundef nonnull dereferenceable(1416) ptr @_Znwm(i64 noundef 1416) #20
  invoke void @_ZN15EditPointPluginC1Ei(ptr noundef nonnull align 8 dereferenceable(1416) %7, i32 noundef 0)
          to label %8 unwind label %10

8:                                                ; preds = %6
  %9 = getelementptr inbounds i8, ptr %7, i64 16
  br label %_ZN16PointEditFactory11getEditToolEPK7QAction.exit

10:                                               ; preds = %6
  %11 = landingpad { ptr, i32 }
          cleanup
  br label %22

12:                                               ; preds = %2
  %13 = getelementptr inbounds i8, ptr %0, i64 56
  %14 = load ptr, ptr %13, align 8
  %15 = icmp eq ptr %14, %1
  br i1 %15, label %16, label %_ZN16PointEditFactory11getEditToolEPK7QAction.exit

16:                                               ; preds = %12
  %17 = tail call noalias noundef nonnull dereferenceable(1416) ptr @_Znwm(i64 noundef 1416) #20
  invoke void @_ZN15EditPointPluginC1Ei(ptr noundef nonnull align 8 dereferenceable(1416) %17, i32 noundef 1)
          to label %18 unwind label %20

18:                                               ; preds = %16
  %19 = getelementptr inbounds i8, ptr %17, i64 16
  br label %_ZN16PointEditFactory11getEditToolEPK7QAction.exit

20:                                               ; preds = %16
  %21 = landingpad { ptr, i32 }
          cleanup
  br label %22

22:                                               ; preds = %20, %10
  %.sink.i = phi ptr [ %17, %20 ], [ %7, %10 ]
  %.pn.i = phi { ptr, i32 } [ %21, %20 ], [ %11, %10 ]
  tail call void @_ZdlPv(ptr noundef nonnull %.sink.i) #16
  resume { ptr, i32 } %.pn.i

_ZN16PointEditFactory11getEditToolEPK7QAction.exit: ; preds = %8, %12, %18
  %.07.i = phi ptr [ %9, %8 ], [ %19, %18 ], [ null, %12 ]
  ret ptr %.07.i
}